target datalayout = "e-m:e-p270:32:32-p271:32:32-p272:64:64-i64:64-i128:128-f80:128-n8:16:32:64-S128"
target triple = "x86_64-pc-linux-gnu"

%"class.llvm::DWARFAbbreviationDeclarationSet" = type { i64, i32, %"class.std::vector" }
%"class.std::vector" = type { %"struct.std::_Vector_base" }
%"struct.std::_Vector_base" = type { %"struct.std::_Vector_base<llvm::DWARFAbbreviationDeclaration, std::allocator<llvm::DWARFAbbreviationDeclaration>>::_Vector_impl" }
%"struct.std::_Vector_base<llvm::DWARFAbbreviationDeclaration, std::allocator<llvm::DWARFAbbreviationDeclaration>>::_Vector_impl" = type { %"struct.std::_Vector_base<llvm::DWARFAbbreviationDeclaration, std::allocator<llvm::DWARFAbbreviationDeclaration>>::_Vector_impl_data" }
%"struct.std::_Vector_base<llvm::DWARFAbbreviationDeclaration, std::allocator<llvm::DWARFAbbreviationDeclaration>>::_Vector_impl_data" = type { ptr, ptr, ptr }
%"class.llvm::DWARFAbbreviationDeclaration" = type { i32, i16, i8, i8, %"class.llvm::SmallVector", %"class.std::optional" }
%"class.llvm::SmallVector" = type { %"class.llvm::SmallVectorImpl", %"struct.llvm::SmallVectorStorage" }
%"class.llvm::SmallVectorImpl" = type { %"class.llvm::SmallVectorTemplateBase" }
%"class.llvm::SmallVectorTemplateBase" = type { %"class.llvm::SmallVectorTemplateCommon" }
%"class.llvm::SmallVectorTemplateCommon" = type { %"class.llvm::SmallVectorBase" }
%"class.llvm::SmallVectorBase" = type { ptr, i32, i32 }
%"struct.llvm::SmallVectorStorage" = type { [128 x i8] }
%"class.std::optional" = type { %"struct.std::_Optional_base" }
%"struct.std::_Optional_base" = type { %"struct.std::_Optional_payload" }
%"struct.std::_Optional_payload" = type { %"struct.std::_Optional_payload_base.base", i8 }
%"struct.std::_Optional_payload_base.base" = type { %"union.std::_Optional_payload_base<llvm::DWARFAbbreviationDeclaration::FixedSizeInfo>::_Storage", i8 }
%"union.std::_Optional_payload_base<llvm::DWARFAbbreviationDeclaration::FixedSizeInfo>::_Storage" = type { %"struct.llvm::DWARFAbbreviationDeclaration::FixedSizeInfo" }
%"struct.llvm::DWARFAbbreviationDeclaration::FixedSizeInfo" = type <{ i16, i8, i8, i8, i8 }>
%"struct.llvm::DWARFAbbreviationDeclaration::AttributeSpec" = type { i16, i16, %union.anon.30 }
%union.anon.30 = type { i64 }

; Function Attrs: mustprogress nounwind uwtable
define linkonce_odr hidden noundef ptr @_ZNK4llvm25SmallVectorTemplateCommonINS_28DWARFAbbreviationDeclaration13AttributeSpecEvE10getFirstElEv(ptr noundef nonnull align 8 dereferenceable(16) %0) #0 comdat align 2 {
  %2 = alloca ptr, align 8
  store ptr %0, ptr %2, align 8
  %3 = load ptr, ptr %2, align 8
  %4 = getelementptr inbounds i8, ptr %3, i64 16
  ret ptr %4
}

; Function Attrs: mustprogress nounwind uwtable
define linkonce_odr hidden noundef zeroext i1 @_ZNK4llvm25SmallVectorTemplateCommonINS_28DWARFAbbreviationDeclaration13AttributeSpecEvE7isSmallEv(ptr noundef nonnull align 8 dereferenceable(16) %0) #0 comdat align 2 {
  %2 = alloca ptr, align 8
  store ptr %0, ptr %2, align 8
  %3 = load ptr, ptr %2, align 8
  %4 = getelementptr inbounds nuw %"class.llvm::SmallVectorBase", ptr %3, i32 0, i32 0
  %5 = load ptr, ptr %4, align 8
  %6 = call noundef ptr @_ZNK4llvm25SmallVectorTemplateCommonINS_28DWARFAbbreviationDeclaration13AttributeSpecEvE10getFirstElEv(ptr noundef nonnull align 8 dereferenceable(16) %3)
  %7 = icmp eq ptr %5, %6
  ret i1 %7
}

; Function Attrs: mustprogress nounwind uwtable
define linkonce_odr hidden void @_ZN4llvm15SmallVectorImplINS_28DWARFAbbreviationDeclaration13AttributeSpecEED2Ev(ptr noundef nonnull align 8 dereferenceable(16) %0) unnamed_addr #0 comdat align 2 {
  %2 = alloca ptr, align 8
  store ptr %0, ptr %2, align 8
  %3 = load ptr, ptr %2, align 8
  %4 = call noundef zeroext i1 @_ZNK4llvm25SmallVectorTemplateCommonINS_28DWARFAbbreviationDeclaration13AttributeSpecEvE7isSmallEv(ptr noundef nonnull align 8 dereferenceable(16) %3)
  br i1 %4, label %7, label %5

5:                                                ; preds = %1
  %6 = call noundef ptr @_ZN4llvm25SmallVectorTemplateCommonINS_28DWARFAbbreviationDeclaration13AttributeSpecEvE5beginEv(ptr noundef nonnull align 8 dereferenceable(16) %3)
  call void @free(ptr noundef %6) #10
  br label %7

7:                                                ; preds = %5, %1
  ret void
}

; Function Attrs: mustprogress nounwind uwtable
define linkonce_odr hidden void @_ZN4llvm23SmallVectorTemplateBaseINS_28DWARFAbbreviationDeclaration13AttributeSpecELb1EE13destroy_rangeEPS2_S4_(ptr noundef %0, ptr noundef %1) #0 comdat align 2 {
  %3 = alloca ptr, align 8
  %4 = alloca ptr, align 8
  store ptr %0, ptr %3, align 8
  store ptr %1, ptr %4, align 8
  ret void
}

; Function Attrs: mustprogress nounwind uwtable
define linkonce_odr hidden noundef ptr @_ZN4llvm25SmallVectorTemplateCommonINS_28DWARFAbbreviationDeclaration13AttributeSpecEvE3endEv(ptr noundef nonnull align 8 dereferenceable(16) %0) #0 comdat align 2 {
  %2 = alloca ptr, align 8
  store ptr %0, ptr %2, align 8
  %3 = load ptr, ptr %2, align 8
  %4 = call noundef ptr @_ZN4llvm25SmallVectorTemplateCommonINS_28DWARFAbbreviationDeclaration13AttributeSpecEvE5beginEv(ptr noundef nonnull align 8 dereferenceable(16) %3)
  %5 = call noundef i64 @_ZNK4llvm15SmallVectorBaseIjE4sizeEv(ptr noundef nonnull align 8 dereferenceable(16) %3)
  %6 = getelementptr inbounds %"struct.llvm::DWARFAbbreviationDeclaration::AttributeSpec", ptr %4, i64 %5
  ret ptr %6
}

; Function Attrs: mustprogress nounwind uwtable
define linkonce_odr hidden noundef ptr @_ZN4llvm25SmallVectorTemplateCommonINS_28DWARFAbbreviationDeclaration13AttributeSpecEvE5beginEv(ptr noundef nonnull align 8 dereferenceable(16) %0) #0 comdat align 2 {
  %2 = alloca ptr, align 8
  store ptr %0, ptr %2, align 8
  %3 = load ptr, ptr %2, align 8
  %4 = getelementptr inbounds nuw %"class.llvm::SmallVectorBase", ptr %3, i32 0, i32 0
  %5 = load ptr, ptr %4, align 8
  ret ptr %5
}

; Function Attrs: mustprogress nounwind uwtable
define linkonce_odr hidden void @_ZN4llvm11SmallVectorINS_28DWARFAbbreviationDeclaration13AttributeSpecELj8EED2Ev(ptr noundef nonnull align 8 dereferenceable(144) %0) unnamed_addr #0 comdat align 2 {
  %2 = alloca ptr, align 8
  store ptr %0, ptr %2, align 8
  %3 = load ptr, ptr %2, align 8
  %4 = call noundef ptr @_ZN4llvm25SmallVectorTemplateCommonINS_28DWARFAbbreviationDeclaration13AttributeSpecEvE5beginEv(ptr noundef nonnull align 8 dereferenceable(16) %3)
  %5 = call noundef ptr @_ZN4llvm25SmallVectorTemplateCommonINS_28DWARFAbbreviationDeclaration13AttributeSpecEvE3endEv(ptr noundef nonnull align 8 dereferenceable(16) %3)
  call void @_ZN4llvm23SmallVectorTemplateBaseINS_28DWARFAbbreviationDeclaration13AttributeSpecELb1EE13destroy_rangeEPS2_S4_(ptr noundef %4, ptr noundef %5)
  call void @_ZN4llvm15SmallVectorImplINS_28DWARFAbbreviationDeclaration13AttributeSpecEED2Ev(ptr noundef nonnull align 8 dereferenceable(16) %3) #10
  ret void
}

; Function Attrs: mustprogress nounwind uwtable
define linkonce_odr hidden void @_ZN4llvm28DWARFAbbreviationDeclarationD2Ev(ptr noundef nonnull align 8 dereferenceable(160) %0) unnamed_addr #0 comdat align 2 {
  %2 = alloca ptr, align 8
  store ptr %0, ptr %2, align 8
  %3 = load ptr, ptr %2, align 8
  %4 = getelementptr inbounds nuw %"class.llvm::DWARFAbbreviationDeclaration", ptr %3, i32 0, i32 4
  call void @_ZN4llvm11SmallVectorINS_28DWARFAbbreviationDeclaration13AttributeSpecELj8EED2Ev(ptr noundef nonnull align 8 dereferenceable(144) %4) #10
  ret void
}

; Function Attrs: mustprogress nounwind uwtable
define linkonce_odr void @_ZSt8_DestroyIN4llvm28DWARFAbbreviationDeclarationEEvPT_(ptr noundef %0) #0 comdat {
  %2 = alloca ptr, align 8
  store ptr %0, ptr %2, align 8
  %3 = load ptr, ptr %2, align 8
  call void @_ZN4llvm28DWARFAbbreviationDeclarationD2Ev(ptr noundef nonnull align 8 dereferenceable(160) %3) #10
  ret void
}

; Function Attrs: mustprogress nounwind uwtable
define linkonce_odr hidden void @_ZNSt12_Destroy_auxILb0EE9__destroyIPN4llvm28DWARFAbbreviationDeclarationEEEvT_S5_(ptr noundef %0, ptr noundef %1) #0 comdat align 2 {
  %3 = alloca ptr, align 8
  %4 = alloca ptr, align 8
  store ptr %0, ptr %3, align 8
  store ptr %1, ptr %4, align 8
  br label %5

5:                                                ; preds = %11, %2
  %6 = load ptr, ptr %3, align 8
  %7 = load ptr, ptr %4, align 8
  %8 = icmp ne ptr %6, %7
  br i1 %8, label %9, label %14

9:                                                ; preds = %5
  %10 = load ptr, ptr %3, align 8
  call void @_ZSt8_DestroyIN4llvm28DWARFAbbreviationDeclarationEEvPT_(ptr noundef %10)
  br label %11

11:                                               ; preds = %9
  %12 = load ptr, ptr %3, align 8
  %13 = getelementptr inbounds %"class.llvm::DWARFAbbreviationDeclaration", ptr %12, i32 1
  store ptr %13, ptr %3, align 8
  br label %5, !llvm.loop !10

14:                                               ; preds = %5
  ret void
}

; Function Attrs: mustprogress nounwind uwtable
define linkonce_odr void @_ZSt8_DestroyIPN4llvm28DWARFAbbreviationDeclarationEEvT_S3_(ptr noundef %0, ptr noundef %1) #0 comdat {
  %3 = alloca ptr, align 8
  %4 = alloca ptr, align 8
  store ptr %0, ptr %3, align 8
  store ptr %1, ptr %4, align 8
  %5 = load ptr, ptr %3, align 8
  %6 = load ptr, ptr %4, align 8
  call void @_ZNSt12_Destroy_auxILb0EE9__destroyIPN4llvm28DWARFAbbreviationDeclarationEEEvT_S5_(ptr noundef %5, ptr noundef %6)
  ret void
}

; Function Attrs: mustprogress nounwind uwtable
define linkonce_odr hidden void @_ZNSt15__new_allocatorIN4llvm28DWARFAbbreviationDeclarationEEC2Ev(ptr noundef nonnull align 1 dereferenceable(1) %0) unnamed_addr #0 comdat align 2 {
  %2 = alloca ptr, align 8
  store ptr %0, ptr %2, align 8
  ret void
}

; Function Attrs: mustprogress nounwind uwtable
define linkonce_odr void @_ZSt8_DestroyIPN4llvm28DWARFAbbreviationDeclarationES1_EvT_S3_RSaIT0_E(ptr noundef %0, ptr noundef %1, ptr noundef nonnull align 1 dereferenceable(1) %2) #0 comdat {
  %4 = alloca ptr, align 8
  %5 = alloca ptr, align 8
  %6 = alloca ptr, align 8
  store ptr %0, ptr %4, align 8
  store ptr %1, ptr %5, align 8
  store ptr %2, ptr %6, align 8
  %7 = load ptr, ptr %4, align 8
  %8 = load ptr, ptr %5, align 8
  call void @_ZSt8_DestroyIPN4llvm28DWARFAbbreviationDeclarationEEvT_S3_(ptr noundef %7, ptr noundef %8)
  ret void
}

; Function Attrs: mustprogress nounwind uwtable
define linkonce_odr hidden noundef nonnull align 1 dereferenceable(1) ptr @_ZNSt12_Vector_baseIN4llvm28DWARFAbbreviationDeclarationESaIS1_EE19_M_get_Tp_allocatorEv(ptr noundef nonnull align 8 dereferenceable(24) %0) #0 comdat align 2 {
  %2 = alloca ptr, align 8
  store ptr %0, ptr %2, align 8
  %3 = load ptr, ptr %2, align 8
  %4 = getelementptr inbounds nuw %"struct.std::_Vector_base", ptr %3, i32 0, i32 0
  ret ptr %4
}

; Function Attrs: mustprogress nounwind uwtable
define linkonce_odr hidden void @_ZNSt12_Vector_baseIN4llvm28DWARFAbbreviationDeclarationESaIS1_EE17_Vector_impl_dataC2Ev(ptr noundef nonnull align 8 dereferenceable(24) %0) unnamed_addr #0 comdat align 2 {
  %2 = alloca ptr, align 8
  store ptr %0, ptr %2, align 8
  %3 = load ptr, ptr %2, align 8
  %4 = getelementptr inbounds nuw %"struct.std::_Vector_base<llvm::DWARFAbbreviationDeclaration, std::allocator<llvm::DWARFAbbreviationDeclaration>>::_Vector_impl_data", ptr %3, i32 0, i32 0
  store ptr null, ptr %4, align 8
  %5 = getelementptr inbounds nuw %"struct.std::_Vector_base<llvm::DWARFAbbreviationDeclaration, std::allocator<llvm::DWARFAbbreviationDeclaration>>::_Vector_impl_data", ptr %3, i32 0, i32 1
  store ptr null, ptr %5, align 8
  %6 = getelementptr inbounds nuw %"struct.std::_Vector_base<llvm::DWARFAbbreviationDeclaration, std::allocator<llvm::DWARFAbbreviationDeclaration>>::_Vector_impl_data", ptr %3, i32 0, i32 2
  store ptr null, ptr %6, align 8
  ret void
}

; Function Attrs: mustprogress nounwind uwtable
define linkonce_odr hidden void @_ZNSaIN4llvm28DWARFAbbreviationDeclarationEEC2Ev(ptr noundef nonnull align 1 dereferenceable(1) %0) unnamed_addr #0 comdat align 2 {
  %2 = alloca ptr, align 8
  store ptr %0, ptr %2, align 8
  %3 = load ptr, ptr %2, align 8
  call void @_ZNSt15__new_allocatorIN4llvm28DWARFAbbreviationDeclarationEEC2Ev(ptr noundef nonnull align 1 dereferenceable(1) %3) #10
  ret void
}

; Function Attrs: mustprogress nounwind uwtable
define linkonce_odr hidden void @_ZNSt6vectorIN4llvm28DWARFAbbreviationDeclarationESaIS1_EE15_M_erase_at_endEPS1_(ptr noundef nonnull align 8 dereferenceable(24) %0, ptr noundef %1) #0 comdat align 2 {
  %3 = alloca ptr, align 8
  %4 = alloca ptr, align 8
  %5 = alloca i64, align 8
  store ptr %0, ptr %3, align 8
  store ptr %1, ptr %4, align 8
  %6 = load ptr, ptr %3, align 8
  %7 = getelementptr inbounds nuw %"struct.std::_Vector_base", ptr %6, i32 0, i32 0
  %8 = getelementptr inbounds nuw %"struct.std::_Vector_base<llvm::DWARFAbbreviationDeclaration, std::allocator<llvm::DWARFAbbreviationDeclaration>>::_Vector_impl_data", ptr %7, i32 0, i32 1
  %9 = load ptr, ptr %8, align 8
  %10 = load ptr, ptr %4, align 8
  %11 = ptrtoint ptr %9 to i64
  %12 = ptrtoint ptr %10 to i64
  %13 = sub i64 %11, %12
  %14 = sdiv exact i64 %13, 160
  store i64 %14, ptr %5, align 8
  %15 = load i64, ptr %5, align 8
  %16 = icmp ne i64 %15, 0
  br i1 %16, label %17, label %26

17:                                               ; preds = %2
  %18 = load ptr, ptr %4, align 8
  %19 = getelementptr inbounds nuw %"struct.std::_Vector_base", ptr %6, i32 0, i32 0
  %20 = getelementptr inbounds nuw %"struct.std::_Vector_base<llvm::DWARFAbbreviationDeclaration, std::allocator<llvm::DWARFAbbreviationDeclaration>>::_Vector_impl_data", ptr %19, i32 0, i32 1
  %21 = load ptr, ptr %20, align 8
  %22 = call noundef nonnull align 1 dereferenceable(1) ptr @_ZNSt12_Vector_baseIN4llvm28DWARFAbbreviationDeclarationESaIS1_EE19_M_get_Tp_allocatorEv(ptr noundef nonnull align 8 dereferenceable(24) %6) #10
  call void @_ZSt8_DestroyIPN4llvm28DWARFAbbreviationDeclarationES1_EvT_S3_RSaIT0_E(ptr noundef %18, ptr noundef %21, ptr noundef nonnull align 1 dereferenceable(1) %22)
  %23 = load ptr, ptr %4, align 8
  %24 = getelementptr inbounds nuw %"struct.std::_Vector_base", ptr %6, i32 0, i32 0
  %25 = getelementptr inbounds nuw %"struct.std::_Vector_base<llvm::DWARFAbbreviationDeclaration, std::allocator<llvm::DWARFAbbreviationDeclaration>>::_Vector_impl_data", ptr %24, i32 0, i32 1
  store ptr %23, ptr %25, align 8
  br label %26

26:                                               ; preds = %17, %2
  ret void
}

; Function Attrs: mustprogress nounwind uwtable
define linkonce_odr hidden void @_ZNSt12_Vector_baseIN4llvm28DWARFAbbreviationDeclarationESaIS1_EE12_Vector_implC2Ev(ptr noundef nonnull align 8 dereferenceable(24) %0) unnamed_addr #0 comdat align 2 {
  %2 = alloca ptr, align 8
  store ptr %0, ptr %2, align 8
  %3 = load ptr, ptr %2, align 8
  call void @_ZNSaIN4llvm28DWARFAbbreviationDeclarationEEC2Ev(ptr noundef nonnull align 1 dereferenceable(1) %3) #10
  call void @_ZNSt12_Vector_baseIN4llvm28DWARFAbbreviationDeclarationESaIS1_EE17_Vector_impl_dataC2Ev(ptr noundef nonnull align 8 dereferenceable(24) %3) #10
  ret void
}

; Function Attrs: mustprogress nounwind uwtable
define linkonce_odr hidden void @_ZNSt6vectorIN4llvm28DWARFAbbreviationDeclarationESaIS1_EE5clearEv(ptr noundef nonnull align 8 dereferenceable(24) %0) #0 comdat align 2 {
  %2 = alloca ptr, align 8
  store ptr %0, ptr %2, align 8
  %3 = load ptr, ptr %2, align 8
  %4 = getelementptr inbounds nuw %"struct.std::_Vector_base", ptr %3, i32 0, i32 0
  %5 = getelementptr inbounds nuw %"struct.std::_Vector_base<llvm::DWARFAbbreviationDeclaration, std::allocator<llvm::DWARFAbbreviationDeclaration>>::_Vector_impl_data", ptr %4, i32 0, i32 0
  %6 = load ptr, ptr %5, align 8
  call void @_ZNSt6vectorIN4llvm28DWARFAbbreviationDeclarationESaIS1_EE15_M_erase_at_endEPS1_(ptr noundef nonnull align 8 dereferenceable(24) %3, ptr noundef %6) #10
  ret void
}

; Function Attrs: mustprogress nounwind uwtable
define linkonce_odr hidden void @_ZNSt12_Vector_baseIN4llvm28DWARFAbbreviationDeclarationESaIS1_EEC2Ev(ptr noundef nonnull align 8 dereferenceable(24) %0) unnamed_addr #0 comdat align 2 {
  %2 = alloca ptr, align 8
  store ptr %0, ptr %2, align 8
  %3 = load ptr, ptr %2, align 8
  %4 = getelementptr inbounds nuw %"struct.std::_Vector_base", ptr %3, i32 0, i32 0
  call void @_ZNSt12_Vector_baseIN4llvm28DWARFAbbreviationDeclarationESaIS1_EE12_Vector_implC2Ev(ptr noundef nonnull align 8 dereferenceable(24) %4) #10
  ret void
}

; Function Attrs: mustprogress nounwind uwtable
define dso_local void @_ZN4llvm31DWARFAbbreviationDeclarationSet5clearEv(ptr noundef nonnull align 8 dereferenceable(40) %0) #0 align 2 {
  %2 = alloca ptr, align 8
  store ptr %0, ptr %2, align 8
  %3 = load ptr, ptr %2, align 8
  %4 = getelementptr inbounds nuw %"class.llvm::DWARFAbbreviationDeclarationSet", ptr %3, i32 0, i32 0
  store i64 0, ptr %4, align 8
  %5 = getelementptr inbounds nuw %"class.llvm::DWARFAbbreviationDeclarationSet", ptr %3, i32 0, i32 1
  store i32 0, ptr %5, align 8
  %6 = getelementptr inbounds nuw %"class.llvm::DWARFAbbreviationDeclarationSet", ptr %3, i32 0, i32 2
  call void @_ZNSt6vectorIN4llvm28DWARFAbbreviationDeclarationESaIS1_EE5clearEv(ptr noundef nonnull align 8 dereferenceable(24) %6) #10
  ret void
}

; Function Attrs: mustprogress nounwind uwtable
define linkonce_odr hidden void @_ZNSt6vectorIN4llvm28DWARFAbbreviationDeclarationESaIS1_EEC2Ev(ptr noundef nonnull align 8 dereferenceable(24) %0) unnamed_addr #0 comdat align 2 {
  %2 = alloca ptr, align 8
  store ptr %0, ptr %2, align 8
  %3 = load ptr, ptr %2, align 8
  call void @_ZNSt12_Vector_baseIN4llvm28DWARFAbbreviationDeclarationESaIS1_EEC2Ev(ptr noundef nonnull align 8 dereferenceable(24) %3) #10
  ret void
}

; Function Attrs: mustprogress nounwind uwtable
define dso_local void @_ZN4llvm31DWARFAbbreviationDeclarationSetC2Ev(ptr noundef nonnull align 8 dereferenceable(40) %0) unnamed_addr #0 align 2 {
  %2 = alloca ptr, align 8
  store ptr %0, ptr %2, align 8
  %3 = load ptr, ptr %2, align 8
  %4 = getelementptr inbounds nuw %"class.llvm::DWARFAbbreviationDeclarationSet", ptr %3, i32 0, i32 2
  call void @_ZNSt6vectorIN4llvm28DWARFAbbreviationDeclarationESaIS1_EEC2Ev(ptr noundef nonnull align 8 dereferenceable(24) %4) #10
  call void @_ZN4llvm31DWARFAbbreviationDeclarationSet5clearEv(ptr noundef nonnull align 8 dereferenceable(40) %3)
  ret void
}