; Function Attrs: mustprogress nofree norecurse nosync nounwind willreturn memory(argmem: write) uwtable
define dso_local void @_ZN4llvm31DWARFAbbreviationDeclarationSetC2Ev(ptr nocapture noundef nonnull writeonly align 8 dereferenceable(40) %0) unnamed_addr #0 align 2 {
_ZN4llvm31DWARFAbbreviationDeclarationSet5clearEv.exit:
  %1 = getelementptr inbounds nuw i8, ptr %0, i64 16
  tail call void @llvm.memset.p0.i64(ptr noundef nonnull align 8 dereferenceable(24) %1, i8 0, i64 24, i1 false)
  store i64 0, ptr %0, align 8
  %2 = getelementptr inbounds nuw i8, ptr %0, i64 8
  store i32 0, ptr %2, align 8
  ret void
}